(dp0
S'term'
p1
(dp2
sS'numeric'
p3
(dp4
S'564b62e9-d5d3-4b9b-bd97-da842b432cf0'
p5
(dp6
S'description'
p7
S''
p8
sS'docType'
p9
S'apacheAccess'
p10
sS'searchCollection'
p11
S'8961ff9f-452e-4511-a022-c15878321499'
p12
sS'field'
p13
S'bytes'
p14
sS'tsField'
p15
S'@timestamp'
p16
sS'alertName'
p17
S'numbytes GT 0'
p18
sS'statistic'
p19
S'max'
p20
sS'threshold'
p21
I0
sS'id'
p22
g5
sS'condition'
p23
g8
ssS'bfe60c5d-9f50-4a99-bbab-e65c9fefa10c'
p24
(dp25
S'description'
p26
V
p27
sS'docType'
p28
S'apacheAccess'
p29
sS'searchCollection'
p30
S'8961ff9f-452e-4511-a022-c15878321499'
p31
sS'field'
p32
S'bytes'
p33
sS'tsField'
p34
S'@timestamp'
p35
sS'alertName'
p36
S'numbytes GT 100'
p37
sS'statistic'
p38
S'max'
p39
sS'threshold'
p40
I100
sg22
g24
sS'condition'
p41
g27
sss.